target datalayout = "e-m:e-p270:32:32-p271:32:32-p272:64:64-i64:64-i128:128-f80:128-n8:16:32:64-S128"
target triple = "x86_64-pc-linux-gnu"

%struct.lua_Callbacks = type { ptr, ptr, ptr, ptr, ptr, ptr, ptr, ptr, ptr }

@_ZL9replState = internal global ptr null, align 8

; Function Attrs: mustprogress uwtable
define internal void @_ZL13sigintHandleri(i32 noundef %0) #1 {
  %2 = alloca i32, align 4
  store i32 %0, ptr %2, align 4
  %3 = load i32, ptr %2, align 4
  %4 = icmp eq i32 %3, 2
  br i1 %4, label %5, label %12

5:                                                ; preds = %1
  %6 = load ptr, ptr @_ZL9replState, align 8
  %7 = icmp ne ptr %6, null
  br i1 %7, label %8, label %12

8:                                                ; preds = %5
  %9 = load ptr, ptr @_ZL9replState, align 8
  %10 = call noundef ptr @_Z13lua_callbacksP9lua_State(ptr noundef %9)
  %11 = getelementptr inbounds %struct.lua_Callbacks, ptr %10, i32 0, i32 1
  store ptr @_ZL14sigintCallbackP9lua_Statei, ptr %11, align 8
  br label %12

12:                                               ; preds = %8, %5, %1
  ret void
}