; Function Attrs: mustprogress uwtable
define internal void @_ZL13sigintHandleri(i32 noundef %0) #1 {
  %2 = icmp eq i32 %0, 2
  %3 = load ptr, ptr @_ZL9replState, align 8
  %4 = icmp ne ptr %3, null
  %or.cond = select i1 %2, i1 %4, i1 false
  br i1 %or.cond, label %5, label %8

5:                                                ; preds = %1
  %6 = tail call noundef ptr @_Z13lua_callbacksP9lua_State(ptr noundef nonnull %3)
  %7 = getelementptr inbounds i8, ptr %6, i64 8
  store ptr @_ZL14sigintCallbackP9lua_Statei, ptr %7, align 8
  br label %8

8:                                                ; preds = %5, %1
  ret void
}